target datalayout = "e-m:e-p270:32:32-p271:32:32-p272:64:64-i64:64-i128:128-f80:128-n8:16:32:64-S128"
target triple = "x86_64-pc-linux-gnu"

%struct.ASMState = type { [32 x i32], ptr, ptr, ptr, ptr, %struct.x86ModRM, i32, i32, i32, i32, i32, i32, i32, i32, i32, i32, i32, i32, i32, i32, i32, i32, i64, i64, i32, i32, i32, i32, i32, ptr, ptr, ptr, ptr, ptr, ptr, ptr, ptr, ptr, [32 x i16], [250 x i16] }
%struct.x86ModRM = type { i32, i8, i8, i8 }

; Function Attrs: alwaysinline nounwind uwtable
define internal void @checkmclim(ptr noundef %0) #3 {
  %2 = alloca ptr, align 8
  store ptr %0, ptr %2, align 8, !tbaa !33
  %3 = load ptr, ptr %2, align 8, !tbaa !33
  %4 = getelementptr inbounds nuw %struct.ASMState, ptr %3, i32 0, i32 1
  %5 = load ptr, ptr %4, align 8, !tbaa !67
  %6 = load ptr, ptr %2, align 8, !tbaa !33
  %7 = getelementptr inbounds nuw %struct.ASMState, ptr %6, i32 0, i32 2
  %8 = load ptr, ptr %7, align 8, !tbaa !69
  %9 = icmp ult ptr %5, %8
  %10 = xor i1 %9, true
  %11 = xor i1 %10, true
  %12 = zext i1 %11 to i32
  %13 = sext i32 %12 to i64
  %14 = call i64 @llvm.expect.i64(i64 %13, i64 0)
  %15 = icmp ne i64 %14, 0
  br i1 %15, label %16, label %18

16:                                               ; preds = %1
  %17 = load ptr, ptr %2, align 8, !tbaa !33
  call void @asm_mclimit(ptr noundef %17) #12
  unreachable

18:                                               ; preds = %1
  ret void
}

; Function Attrs: nounwind uwtable
define internal void @ra_evictset(ptr noundef %0, i32 noundef %1) #0 {
  %3 = alloca ptr, align 8
  %4 = alloca i32, align 4
  %5 = alloca i32, align 4
  %6 = alloca i32, align 4
  %7 = alloca i32, align 4
  store ptr %0, ptr %3, align 8, !tbaa !33
  store i32 %1, ptr %4, align 4, !tbaa !11
  call void @llvm.lifetime.start.p0(i64 4, ptr %5) #11
  %8 = load i32, ptr %4, align 4, !tbaa !11
  %9 = load ptr, ptr %3, align 8, !tbaa !33
  %10 = getelementptr inbounds nuw %struct.ASMState, ptr %9, i32 0, i32 7
  %11 = load i32, ptr %10, align 4, !tbaa !106
  %12 = or i32 %11, %8
  store i32 %12, ptr %10, align 4, !tbaa !106
  %13 = load i32, ptr %4, align 4, !tbaa !11
  %14 = load ptr, ptr %3, align 8, !tbaa !33
  %15 = getelementptr inbounds nuw %struct.ASMState, ptr %14, i32 0, i32 6
  %16 = load i32, ptr %15, align 8, !tbaa !84
  %17 = xor i32 %16, -1
  %18 = and i32 %13, %17
  %19 = and i32 %18, -65536
  store i32 %19, ptr %5, align 4, !tbaa !11
  br label %20

20:                                               ; preds = %23, %2
  %21 = load i32, ptr %5, align 4, !tbaa !11
  %22 = icmp ne i32 %21, 0
  br i1 %22, label %23, label %42

23:                                               ; preds = %20
  call void @llvm.lifetime.start.p0(i64 4, ptr %6) #11
  %24 = load i32, ptr %5, align 4, !tbaa !11
  %25 = call i32 @llvm.cttz.i32(i32 %24, i1 true)
  store i32 %25, ptr %6, align 4, !tbaa !11
  %26 = load ptr, ptr %3, align 8, !tbaa !33
  %27 = load ptr, ptr %3, align 8, !tbaa !33
  %28 = getelementptr inbounds nuw %struct.ASMState, ptr %27, i32 0, i32 0
  %29 = load i32, ptr %6, align 4, !tbaa !11
  %30 = zext i32 %29 to i64
  %31 = getelementptr inbounds nuw [32 x i32], ptr %28, i64 0, i64 %30
  %32 = load i32, ptr %31, align 4, !tbaa !11
  %33 = trunc i32 %32 to i16
  %34 = zext i16 %33 to i32
  %35 = call i32 @ra_restore(ptr noundef %26, i32 noundef %34)
  %36 = load i32, ptr %6, align 4, !tbaa !11
  %37 = shl i32 1, %36
  %38 = xor i32 %37, -1
  %39 = load i32, ptr %5, align 4, !tbaa !11
  %40 = and i32 %39, %38
  store i32 %40, ptr %5, align 4, !tbaa !11
  %41 = load ptr, ptr %3, align 8, !tbaa !33
  call void @checkmclim(ptr noundef %41)
  call void @llvm.lifetime.end.p0(i64 4, ptr %6) #11
  br label %20, !llvm.loop !209

42:                                               ; preds = %20
  %43 = load i32, ptr %4, align 4, !tbaa !11
  %44 = load ptr, ptr %3, align 8, !tbaa !33
  %45 = getelementptr inbounds nuw %struct.ASMState, ptr %44, i32 0, i32 6
  %46 = load i32, ptr %45, align 8, !tbaa !84
  %47 = xor i32 %46, -1
  %48 = and i32 %43, %47
  store i32 %48, ptr %5, align 4, !tbaa !11
  br label %49

49:                                               ; preds = %52, %42
  %50 = load i32, ptr %5, align 4, !tbaa !11
  %51 = icmp ne i32 %50, 0
  br i1 %51, label %52, label %71

52:                                               ; preds = %49
  call void @llvm.lifetime.start.p0(i64 4, ptr %7) #11
  %53 = load i32, ptr %5, align 4, !tbaa !11
  %54 = call i32 @llvm.cttz.i32(i32 %53, i1 true)
  store i32 %54, ptr %7, align 4, !tbaa !11
  %55 = load ptr, ptr %3, align 8, !tbaa !33
  %56 = load ptr, ptr %3, align 8, !tbaa !33
  %57 = getelementptr inbounds nuw %struct.ASMState, ptr %56, i32 0, i32 0
  %58 = load i32, ptr %7, align 4, !tbaa !11
  %59 = zext i32 %58 to i64
  %60 = getelementptr inbounds nuw [32 x i32], ptr %57, i64 0, i64 %59
  %61 = load i32, ptr %60, align 4, !tbaa !11
  %62 = trunc i32 %61 to i16
  %63 = zext i16 %62 to i32
  %64 = call i32 @ra_restore(ptr noundef %55, i32 noundef %63)
  %65 = load i32, ptr %7, align 4, !tbaa !11
  %66 = shl i32 1, %65
  %67 = xor i32 %66, -1
  %68 = load i32, ptr %5, align 4, !tbaa !11
  %69 = and i32 %68, %67
  store i32 %69, ptr %5, align 4, !tbaa !11
  %70 = load ptr, ptr %3, align 8, !tbaa !33
  call void @checkmclim(ptr noundef %70)
  call void @llvm.lifetime.end.p0(i64 4, ptr %7) #11
  br label %49, !llvm.loop !210

71:                                               ; preds = %49
  call void @llvm.lifetime.end.p0(i64 4, ptr %5) #11
  ret void
}