; Function Attrs: nounwind uwtable
define internal fastcc void @ra_evictset(ptr noundef nonnull captures(none) %0, i32 noundef %1) unnamed_addr #0 {
  %3 = getelementptr inbounds nuw i8, ptr %0, i64 172
  %4 = load i32, ptr %3, align 4, !tbaa !79
  %5 = or i32 %4, %1
  store i32 %5, ptr %3, align 4, !tbaa !79
  %6 = getelementptr inbounds nuw i8, ptr %0, i64 168
  %7 = load i32, ptr %6, align 8, !tbaa !78
  %8 = xor i32 %7, -1
  %9 = and i32 %1, -65536
  %10 = and i32 %9, %8
  %11 = getelementptr inbounds nuw i8, ptr %0, i64 128
  %12 = getelementptr inbounds nuw i8, ptr %0, i64 136
  br label %checkmclim.exit22

checkmclim.exit22:                                ; preds = %13, %2
  %.0 = phi i32 [ %10, %2 ], [ %22, %13 ]
  %.not = icmp eq i32 %.0, 0
  br i1 %.not, label %27, label %13

13:                                               ; preds = %checkmclim.exit22
  %14 = tail call range(i32 0, 33) i32 @llvm.cttz.i32(i32 %.0, i1 true)
  %15 = zext nneg i32 %14 to i64
  %16 = getelementptr inbounds nuw [32 x i32], ptr %0, i64 0, i64 %15
  %17 = load i32, ptr %16, align 4, !tbaa !21
  %18 = and i32 %17, 65535
  %19 = tail call fastcc i32 @ra_restore(ptr noundef %0, i32 noundef %18)
  %20 = shl nuw i32 1, %14
  %21 = xor i32 %20, -1
  %22 = and i32 %.0, %21
  %23 = load ptr, ptr %11, align 8, !tbaa !60
  %24 = load ptr, ptr %12, align 8, !tbaa !62
  %25 = icmp ult ptr %23, %24
  br i1 %25, label %26, label %checkmclim.exit22, !prof !108, !llvm.loop !180

26:                                               ; preds = %13
  tail call fastcc void @asm_mclimit(ptr noundef nonnull %0) #16
  unreachable

27:                                               ; preds = %checkmclim.exit22
  %28 = load i32, ptr %6, align 8, !tbaa !78
  %29 = xor i32 %28, -1
  %30 = and i32 %1, %29
  br label %checkmclim.exit

checkmclim.exit:                                  ; preds = %31, %27
  %.1 = phi i32 [ %30, %27 ], [ %40, %31 ]
  %.not21 = icmp eq i32 %.1, 0
  br i1 %.not21, label %45, label %31

31:                                               ; preds = %checkmclim.exit
  %32 = tail call range(i32 0, 33) i32 @llvm.cttz.i32(i32 %.1, i1 true)
  %33 = zext nneg i32 %32 to i64
  %34 = getelementptr inbounds nuw [32 x i32], ptr %0, i64 0, i64 %33
  %35 = load i32, ptr %34, align 4, !tbaa !21
  %36 = and i32 %35, 65535
  %37 = tail call fastcc i32 @ra_restore(ptr noundef %0, i32 noundef %36)
  %38 = shl nuw i32 1, %32
  %39 = xor i32 %38, -1
  %40 = and i32 %.1, %39
  %41 = load ptr, ptr %11, align 8, !tbaa !60
  %42 = load ptr, ptr %12, align 8, !tbaa !62
  %43 = icmp ult ptr %41, %42
  br i1 %43, label %44, label %checkmclim.exit, !prof !108, !llvm.loop !181

44:                                               ; preds = %31
  tail call fastcc void @asm_mclimit(ptr noundef nonnull %0) #16
  unreachable

45:                                               ; preds = %checkmclim.exit
  ret void
}